
obj/bitcount/main.elf:     file format elf32-tradlittlemips


Disassembly of section .text:

80000000 <_ftext>:
80000000:	3c0a0040 	lui	t2,0x40
80000004:	408a6000 	mtc0	t2,c0_sr
80000008:	40806800 	mtc0	zero,c0_cause
8000000c:	3c1d8010 	lui	sp,0x8010
80000010:	27bd1fe0 	addiu	sp,sp,8160
80000014:	3c1c8001 	lui	gp,0x8001
80000018:	279c9ff0 	addiu	gp,gp,-24592
8000001c:	041100dc 	bal	80000390 <shell>
80000020:	00000000 	nop

80000024 <loop>:
80000024:	08000009 	j	80000024 <loop>

80000028 <exit>:
80000028:	340900ff 	li	t1,0xff
8000002c:	3c018000 	lui	at,0x8000
80000030:	a0297ffc 	sb	t1,32764(at)
	...
80000380:	0c000520 	jal	80001480 <exception>
80000384:	00000000 	nop
80000388:	0800000a 	j	80000028 <exit>
8000038c:	00000000 	nop

80000390 <shell>:
80000390:	27bdffd8 	addiu	sp,sp,-40
80000394:	afbf0024 	sw	ra,36(sp)
80000398:	afb40020 	sw	s4,32(sp)
8000039c:	afb3001c 	sw	s3,28(sp)
800003a0:	afb20018 	sw	s2,24(sp)
800003a4:	afb10014 	sw	s1,20(sp)
800003a8:	0c0003fb 	jal	80000fec <get_count>
800003ac:	afb00010 	sw	s0,16(sp)
800003b0:	0c0004dd 	jal	80001374 <get_us>
800003b4:	00409025 	move	s2,v0
800003b8:	24040001 	li	a0,1
800003bc:	24050064 	li	a1,100
800003c0:	0c000140 	jal	80000500 <bitcnts>
800003c4:	00408025 	move	s0,v0
800003c8:	0c0003fb 	jal	80000fec <get_count>
800003cc:	0040a025 	move	s4,v0
800003d0:	0c0004dd 	jal	80001374 <get_us>
800003d4:	00409825 	move	s3,v0
800003d8:	3c048000 	lui	a0,0x8000
800003dc:	00408825 	move	s1,v0
800003e0:	02802825 	move	a1,s4
800003e4:	0c0002ec 	jal	80000bb0 <printf>
800003e8:	248415d4 	addiu	a0,a0,5588
800003ec:	02722823 	subu	a1,s3,s2
800003f0:	02303023 	subu	a2,s1,s0
800003f4:	8fbf0024 	lw	ra,36(sp)
800003f8:	8fb40020 	lw	s4,32(sp)
800003fc:	8fb3001c 	lw	s3,28(sp)
80000400:	8fb20018 	lw	s2,24(sp)
80000404:	8fb10014 	lw	s1,20(sp)
80000408:	8fb00010 	lw	s0,16(sp)
8000040c:	3c028000 	lui	v0,0x8000
80000410:	244415e0 	addiu	a0,v0,5600
80000414:	080002ec 	j	80000bb0 <printf>
80000418:	27bd0028 	addiu	sp,sp,40
8000041c:	00000000 	nop

80000420 <bit_shifter>:
80000420:	1080002f 	beqz	a0,800004e0 <bit_shifter+0xc0>
80000424:	24050020 	li	a1,32
80000428:	27bdfff8 	addiu	sp,sp,-8
8000042c:	00001025 	move	v0,zero
80000430:	afb10004 	sw	s1,4(sp)
80000434:	afb00000 	sw	s0,0(sp)
80000438:	30830001 	andi	v1,a0,0x1
8000043c:	00043043 	sra	a2,a0,0x1
80000440:	00043883 	sra	a3,a0,0x2
80000444:	000440c3 	sra	t0,a0,0x3
80000448:	00044903 	sra	t1,a0,0x4
8000044c:	00045143 	sra	t2,a0,0x5
80000450:	00045983 	sra	t3,a0,0x6
80000454:	000461c3 	sra	t4,a0,0x7
80000458:	30cd0001 	andi	t5,a2,0x1
8000045c:	30ee0001 	andi	t6,a3,0x1
80000460:	310f0001 	andi	t7,t0,0x1
80000464:	31380001 	andi	t8,t1,0x1
80000468:	31590001 	andi	t9,t2,0x1
8000046c:	31700001 	andi	s0,t3,0x1
80000470:	31910001 	andi	s1,t4,0x1
80000474:	24a5fff8 	addiu	a1,a1,-8
80000478:	00431021 	addu	v0,v0,v1
8000047c:	10c00011 	beqz	a2,800004c4 <bit_shifter+0xa4>
80000480:	00042203 	sra	a0,a0,0x8
80000484:	10e0000f 	beqz	a3,800004c4 <bit_shifter+0xa4>
80000488:	004d1021 	addu	v0,v0,t5
8000048c:	1100000d 	beqz	t0,800004c4 <bit_shifter+0xa4>
80000490:	004e1021 	addu	v0,v0,t6
80000494:	1120000b 	beqz	t1,800004c4 <bit_shifter+0xa4>
80000498:	004f1021 	addu	v0,v0,t7
8000049c:	11400009 	beqz	t2,800004c4 <bit_shifter+0xa4>
800004a0:	00581021 	addu	v0,v0,t8
800004a4:	11600007 	beqz	t3,800004c4 <bit_shifter+0xa4>
800004a8:	00591021 	addu	v0,v0,t9
800004ac:	11800005 	beqz	t4,800004c4 <bit_shifter+0xa4>
800004b0:	00501021 	addu	v0,v0,s0
800004b4:	10800003 	beqz	a0,800004c4 <bit_shifter+0xa4>
800004b8:	00511021 	addu	v0,v0,s1
800004bc:	14a0ffdf 	bnez	a1,8000043c <bit_shifter+0x1c>
800004c0:	30830001 	andi	v1,a0,0x1
800004c4:	8fb10004 	lw	s1,4(sp)
800004c8:	8fb00000 	lw	s0,0(sp)
800004cc:	03e00008 	jr	ra
800004d0:	27bd0008 	addiu	sp,sp,8
	...
800004e0:	03e00008 	jr	ra
800004e4:	00001025 	move	v0,zero
	...

800004f0 <myrand>:
800004f0:	03e00008 	jr	ra
800004f4:	24025670 	li	v0,22128
	...

80000500 <bitcnts>:
80000500:	27bdffc8 	addiu	sp,sp,-56
80000504:	3c048000 	lui	a0,0x8000
80000508:	248415f8 	addiu	a0,a0,5624
8000050c:	afb50028 	sw	s5,40(sp)
80000510:	00a0a825 	move	s5,a1
80000514:	afbf0034 	sw	ra,52(sp)
80000518:	afb6002c 	sw	s6,44(sp)
8000051c:	afb40024 	sw	s4,36(sp)
80000520:	afb30020 	sw	s3,32(sp)
80000524:	afb70030 	sw	s7,48(sp)
80000528:	00159880 	sll	s3,s5,0x2
8000052c:	afb2001c 	sw	s2,28(sp)
80000530:	afb10018 	sw	s1,24(sp)
80000534:	0c000553 	jal	8000154c <puts>
80000538:	afb00014 	sw	s0,20(sp)
8000053c:	0c00050e 	jal	80001438 <get_ns>
80000540:	3c148000 	lui	s4,0x8000
80000544:	00151100 	sll	v0,s5,0x4
80000548:	00531823 	subu	v1,v0,s3
8000054c:	00752821 	addu	a1,v1,s5
80000550:	3c168000 	lui	s6,0x8000
80000554:	2694161c 	addiu	s4,s4,5660
80000558:	26d61638 	addiu	s6,s6,5688
8000055c:	24b35670 	addiu	s3,a1,22128
80000560:	1aa00063 	blez	s5,800006f0 <bitcnts+0x1f0>
80000564:	3c06c4ec 	lui	a2,0xc4ec
80000568:	2677a983 	addiu	s7,s3,-22141
8000056c:	24c74ec5 	addiu	a3,a2,20165
80000570:	02e70018 	mult	s7,a3
80000574:	8e920000 	lw	s2,0(s4)
80000578:	24045670 	li	a0,22128
8000057c:	2410567d 	li	s0,22141
80000580:	00004012 	mflo	t0
80000584:	0240f809 	jalr	s2
80000588:	31170007 	andi	s7,t0,0x7
8000058c:	12130046 	beq	s0,s3,800006a8 <bitcnts+0x1a8>
80000590:	00408825 	move	s1,v0
80000594:	12e0002a 	beqz	s7,80000640 <bitcnts+0x140>
80000598:	24090001 	li	t1,1
8000059c:	12e90023 	beq	s7,t1,8000062c <bitcnts+0x12c>
800005a0:	240a0002 	li	t2,2
800005a4:	12ea001d 	beq	s7,t2,8000061c <bitcnts+0x11c>
800005a8:	240b0003 	li	t3,3
800005ac:	12eb0017 	beq	s7,t3,8000060c <bitcnts+0x10c>
800005b0:	240c0004 	li	t4,4
800005b4:	12ec0011 	beq	s7,t4,800005fc <bitcnts+0xfc>
800005b8:	240d0005 	li	t5,5
800005bc:	12ed000b 	beq	s7,t5,800005ec <bitcnts+0xec>
800005c0:	240e0006 	li	t6,6
800005c4:	12ee0005 	beq	s7,t6,800005dc <bitcnts+0xdc>
800005c8:	00000000 	nop
800005cc:	0240f809 	jalr	s2
800005d0:	2404567d 	li	a0,22141
800005d4:	02228821 	addu	s1,s1,v0
800005d8:	2410568a 	li	s0,22154
800005dc:	0240f809 	jalr	s2
800005e0:	02002025 	move	a0,s0
800005e4:	02228821 	addu	s1,s1,v0
800005e8:	2610000d 	addiu	s0,s0,13
800005ec:	0240f809 	jalr	s2
800005f0:	02002025 	move	a0,s0
800005f4:	02228821 	addu	s1,s1,v0
800005f8:	2610000d 	addiu	s0,s0,13
800005fc:	0240f809 	jalr	s2
80000600:	02002025 	move	a0,s0
80000604:	02228821 	addu	s1,s1,v0
80000608:	2610000d 	addiu	s0,s0,13
8000060c:	0240f809 	jalr	s2
80000610:	02002025 	move	a0,s0
80000614:	02228821 	addu	s1,s1,v0
80000618:	2610000d 	addiu	s0,s0,13
8000061c:	0240f809 	jalr	s2
80000620:	02002025 	move	a0,s0
80000624:	02228821 	addu	s1,s1,v0
80000628:	2610000d 	addiu	s0,s0,13
8000062c:	0240f809 	jalr	s2
80000630:	02002025 	move	a0,s0
80000634:	2610000d 	addiu	s0,s0,13
80000638:	1213001b 	beq	s0,s3,800006a8 <bitcnts+0x1a8>
8000063c:	02228821 	addu	s1,s1,v0
80000640:	0240f809 	jalr	s2
80000644:	02002025 	move	a0,s0
80000648:	2604000d 	addiu	a0,s0,13
8000064c:	0240f809 	jalr	s2
80000650:	0222b821 	addu	s7,s1,v0
80000654:	2604001a 	addiu	a0,s0,26
80000658:	0240f809 	jalr	s2
8000065c:	02e28821 	addu	s1,s7,v0
80000660:	26040027 	addiu	a0,s0,39
80000664:	0240f809 	jalr	s2
80000668:	0222b821 	addu	s7,s1,v0
8000066c:	26040034 	addiu	a0,s0,52
80000670:	0240f809 	jalr	s2
80000674:	02e28821 	addu	s1,s7,v0
80000678:	26040041 	addiu	a0,s0,65
8000067c:	0240f809 	jalr	s2
80000680:	0222b821 	addu	s7,s1,v0
80000684:	2604004e 	addiu	a0,s0,78
80000688:	0240f809 	jalr	s2
8000068c:	02e28821 	addu	s1,s7,v0
80000690:	2604005b 	addiu	a0,s0,91
80000694:	0222b821 	addu	s7,s1,v0
80000698:	0240f809 	jalr	s2
8000069c:	26100068 	addiu	s0,s0,104
800006a0:	1613ffe7 	bne	s0,s3,80000640 <bitcnts+0x140>
800006a4:	02e28821 	addu	s1,s7,v0
800006a8:	26940004 	addiu	s4,s4,4
800006ac:	1696ffac 	bne	s4,s6,80000560 <bitcnts+0x60>
800006b0:	00000000 	nop
800006b4:	0c00050e 	jal	80001438 <get_ns>
800006b8:	00000000 	nop
800006bc:	8fbf0034 	lw	ra,52(sp)
800006c0:	02201025 	move	v0,s1
800006c4:	8fb70030 	lw	s7,48(sp)
800006c8:	8fb6002c 	lw	s6,44(sp)
800006cc:	8fb50028 	lw	s5,40(sp)
800006d0:	8fb40024 	lw	s4,36(sp)
800006d4:	8fb30020 	lw	s3,32(sp)
800006d8:	8fb2001c 	lw	s2,28(sp)
800006dc:	8fb10018 	lw	s1,24(sp)
800006e0:	8fb00014 	lw	s0,20(sp)
800006e4:	03e00008 	jr	ra
800006e8:	27bd0038 	addiu	sp,sp,56
800006ec:	00000000 	nop
800006f0:	26940004 	addiu	s4,s4,4
800006f4:	1696ff9a 	bne	s4,s6,80000560 <bitcnts+0x60>
800006f8:	00008825 	move	s1,zero
800006fc:	1000ffed 	b	800006b4 <bitcnts+0x1b4>
80000700:	00000000 	nop
	...

80000710 <bitcount>:
80000710:	3c02aaaa 	lui	v0,0xaaaa
80000714:	3443aaaa 	ori	v1,v0,0xaaaa
80000718:	3c075555 	lui	a3,0x5555
8000071c:	00832824 	and	a1,a0,v1
80000720:	24e85555 	addiu	t0,a3,21845
80000724:	00053042 	srl	a2,a1,0x1
80000728:	00882024 	and	a0,a0,t0
8000072c:	3c0acccc 	lui	t2,0xcccc
80000730:	00c44821 	addu	t1,a2,a0
80000734:	354bcccc 	ori	t3,t2,0xcccc
80000738:	3c0e3333 	lui	t6,0x3333
8000073c:	012b6024 	and	t4,t1,t3
80000740:	25c43333 	addiu	a0,t6,13107
80000744:	01247824 	and	t7,t1,a0
80000748:	000c6882 	srl	t5,t4,0x2
8000074c:	3c19f0f0 	lui	t9,0xf0f0
80000750:	01afc021 	addu	t8,t5,t7
80000754:	3722f0f0 	ori	v0,t9,0xf0f0
80000758:	3c050f0f 	lui	a1,0xf0f
8000075c:	03021824 	and	v1,t8,v0
80000760:	24a70f0f 	addiu	a3,a1,3855
80000764:	03074024 	and	t0,t8,a3
80000768:	00033102 	srl	a2,v1,0x4
8000076c:	3c0aff00 	lui	t2,0xff00
80000770:	00c84821 	addu	t1,a2,t0
80000774:	354bff00 	ori	t3,t2,0xff00
80000778:	3c0e00ff 	lui	t6,0xff
8000077c:	012b6024 	and	t4,t1,t3
80000780:	25c400ff 	addiu	a0,t6,255
80000784:	000c6a02 	srl	t5,t4,0x8
80000788:	01247824 	and	t7,t1,a0
8000078c:	01afc021 	addu	t8,t5,t7
80000790:	3319ffff 	andi	t9,t8,0xffff
80000794:	00181402 	srl	v0,t8,0x10
80000798:	03e00008 	jr	ra
8000079c:	03221021 	addu	v0,t9,v0

800007a0 <ntbl_bitcount>:
800007a0:	308300f0 	andi	v1,a0,0xf0
800007a4:	3c078000 	lui	a3,0x8000
800007a8:	24eb1638 	addiu	t3,a3,5688
800007ac:	3085000f 	andi	a1,a0,0xf
800007b0:	00033102 	srl	a2,v1,0x4
800007b4:	30820f00 	andi	v0,a0,0xf00
800007b8:	00ab4821 	addu	t1,a1,t3
800007bc:	00025202 	srl	t2,v0,0x8
800007c0:	00cb2821 	addu	a1,a2,t3
800007c4:	3088f000 	andi	t0,a0,0xf000
800007c8:	912c0000 	lbu	t4,0(t1)
800007cc:	90a60000 	lbu	a2,0(a1)
800007d0:	014b1821 	addu	v1,t2,t3
800007d4:	00086b02 	srl	t5,t0,0xc
800007d8:	00047402 	srl	t6,a0,0x10
800007dc:	90650000 	lbu	a1,0(v1)
800007e0:	01ab1021 	addu	v0,t5,t3
800007e4:	31cf000f 	andi	t7,t6,0xf
800007e8:	0004c502 	srl	t8,a0,0x14
800007ec:	0186c821 	addu	t9,t4,a2
800007f0:	01eb1821 	addu	v1,t7,t3
800007f4:	90470000 	lbu	a3,0(v0)
800007f8:	3309000f 	andi	t1,t8,0xf
800007fc:	00043602 	srl	a2,a0,0x18
80000800:	03255021 	addu	t2,t9,a1
80000804:	012b1021 	addu	v0,t1,t3
80000808:	90680000 	lbu	t0,0(v1)
8000080c:	30cc000f 	andi	t4,a2,0xf
80000810:	904d0000 	lbu	t5,0(v0)
80000814:	018b2821 	addu	a1,t4,t3
80000818:	01471821 	addu	v1,t2,a3
8000081c:	00042702 	srl	a0,a0,0x1c
80000820:	90a20000 	lbu	v0,0(a1)
80000824:	00687021 	addu	t6,v1,t0
80000828:	008b5821 	addu	t3,a0,t3
8000082c:	01cd7821 	addu	t7,t6,t5
80000830:	91780000 	lbu	t8,0(t3)
80000834:	01e2c821 	addu	t9,t7,v0
80000838:	03e00008 	jr	ra
8000083c:	03381021 	addu	v0,t9,t8

80000840 <BW_btbl_bitcount>:
80000840:	00041202 	srl	v0,a0,0x8
80000844:	3c038000 	lui	v1,0x8000
80000848:	24671638 	addiu	a3,v1,5688
8000084c:	308500ff 	andi	a1,a0,0xff
80000850:	304600ff 	andi	a2,v0,0xff
80000854:	00045602 	srl	t2,a0,0x18
80000858:	00a74021 	addu	t0,a1,a3
8000085c:	00c74821 	addu	t1,a2,a3
80000860:	00042402 	srl	a0,a0,0x10
80000864:	91030000 	lbu	v1,0(t0)
80000868:	912b0000 	lbu	t3,0(t1)
8000086c:	01476021 	addu	t4,t2,a3
80000870:	308d00ff 	andi	t5,a0,0xff
80000874:	91820000 	lbu	v0,0(t4)
80000878:	01a77021 	addu	t6,t5,a3
8000087c:	006b7821 	addu	t7,v1,t3
80000880:	91d80000 	lbu	t8,0(t6)
80000884:	01e2c821 	addu	t9,t7,v0
80000888:	03e00008 	jr	ra
8000088c:	03381021 	addu	v0,t9,t8

80000890 <AR_btbl_bitcount>:
80000890:	00043202 	srl	a2,a0,0x8
80000894:	3c038000 	lui	v1,0x8000
80000898:	24681638 	addiu	t0,v1,5688
8000089c:	308200ff 	andi	v0,a0,0xff
800008a0:	30c700ff 	andi	a3,a2,0xff
800008a4:	00042c02 	srl	a1,a0,0x10
800008a8:	00484821 	addu	t1,v0,t0
800008ac:	30aa00ff 	andi	t2,a1,0xff
800008b0:	00e81021 	addu	v0,a3,t0
800008b4:	904c0000 	lbu	t4,0(v0)
800008b8:	912b0000 	lbu	t3,0(t1)
800008bc:	01486821 	addu	t5,t2,t0
800008c0:	00041e02 	srl	v1,a0,0x18
800008c4:	91ae0000 	lbu	t6,0(t5)
800008c8:	00687821 	addu	t7,v1,t0
800008cc:	018bc021 	addu	t8,t4,t3
800008d0:	91f90000 	lbu	t9,0(t7)
800008d4:	01d83021 	addu	a2,t6,t8
800008d8:	afa40000 	sw	a0,0(sp)
800008dc:	03e00008 	jr	ra
800008e0:	03261021 	addu	v0,t9,a2
	...

800008f0 <ntbl_bitcnt>:
800008f0:	3c058000 	lui	a1,0x8000
800008f4:	3082000f 	andi	v0,a0,0xf
800008f8:	24a51738 	addiu	a1,a1,5944
800008fc:	00a21821 	addu	v1,a1,v0
80000900:	00042103 	sra	a0,a0,0x4
80000904:	90620000 	lbu	v0,0(v1)
80000908:	10800045 	beqz	a0,80000a20 <ntbl_bitcnt+0x130>
8000090c:	00001825 	move	v1,zero
80000910:	27bdfff0 	addiu	sp,sp,-16
80000914:	afb2000c 	sw	s2,12(sp)
80000918:	afb10008 	sw	s1,8(sp)
8000091c:	afb00004 	sw	s0,4(sp)
80000920:	3086000f 	andi	a2,a0,0xf
80000924:	00047103 	sra	t6,a0,0x4
80000928:	00047a03 	sra	t7,a0,0x8
8000092c:	0004c303 	sra	t8,a0,0xc
80000930:	0004cc03 	sra	t9,a0,0x10
80000934:	00048503 	sra	s0,a0,0x14
80000938:	00048e03 	sra	s1,a0,0x18
8000093c:	00049703 	sra	s2,a0,0x1c
80000940:	31c7000f 	andi	a3,t6,0xf
80000944:	00a63021 	addu	a2,a1,a2
80000948:	31e8000f 	andi	t0,t7,0xf
8000094c:	3309000f 	andi	t1,t8,0xf
80000950:	332a000f 	andi	t2,t9,0xf
80000954:	320b000f 	andi	t3,s0,0xf
80000958:	322c000f 	andi	t4,s1,0xf
8000095c:	324d000f 	andi	t5,s2,0xf
80000960:	00621821 	addu	v1,v1,v0
80000964:	00a73821 	addu	a3,a1,a3
80000968:	00a84021 	addu	t0,a1,t0
8000096c:	00a94821 	addu	t1,a1,t1
80000970:	00aa5021 	addu	t2,a1,t2
80000974:	00ab5821 	addu	t3,a1,t3
80000978:	00ac6021 	addu	t4,a1,t4
8000097c:	00ad6821 	addu	t5,a1,t5
80000980:	90c20000 	lbu	v0,0(a2)
80000984:	11c0001d 	beqz	t6,800009fc <ntbl_bitcnt+0x10c>
80000988:	000427c3 	sra	a0,a0,0x1f
8000098c:	00621821 	addu	v1,v1,v0
80000990:	90e20000 	lbu	v0,0(a3)
80000994:	11e00019 	beqz	t7,800009fc <ntbl_bitcnt+0x10c>
80000998:	00000000 	nop
8000099c:	00621821 	addu	v1,v1,v0
800009a0:	91020000 	lbu	v0,0(t0)
800009a4:	13000015 	beqz	t8,800009fc <ntbl_bitcnt+0x10c>
800009a8:	00000000 	nop
800009ac:	00621821 	addu	v1,v1,v0
800009b0:	91220000 	lbu	v0,0(t1)
800009b4:	13200011 	beqz	t9,800009fc <ntbl_bitcnt+0x10c>
800009b8:	00000000 	nop
800009bc:	00621821 	addu	v1,v1,v0
800009c0:	91420000 	lbu	v0,0(t2)
800009c4:	1200000d 	beqz	s0,800009fc <ntbl_bitcnt+0x10c>
800009c8:	00000000 	nop
800009cc:	00621821 	addu	v1,v1,v0
800009d0:	91620000 	lbu	v0,0(t3)
800009d4:	12200009 	beqz	s1,800009fc <ntbl_bitcnt+0x10c>
800009d8:	00000000 	nop
800009dc:	00621821 	addu	v1,v1,v0
800009e0:	91820000 	lbu	v0,0(t4)
800009e4:	12400005 	beqz	s2,800009fc <ntbl_bitcnt+0x10c>
800009e8:	00000000 	nop
800009ec:	00621821 	addu	v1,v1,v0
800009f0:	91a20000 	lbu	v0,0(t5)
800009f4:	1480ffcb 	bnez	a0,80000924 <ntbl_bitcnt+0x34>
800009f8:	3086000f 	andi	a2,a0,0xf
800009fc:	8fb2000c 	lw	s2,12(sp)
80000a00:	8fb10008 	lw	s1,8(sp)
80000a04:	8fb00004 	lw	s0,4(sp)
80000a08:	00621021 	addu	v0,v1,v0
80000a0c:	03e00008 	jr	ra
80000a10:	27bd0010 	addiu	sp,sp,16
	...
80000a20:	00002025 	move	a0,zero
80000a24:	03e00008 	jr	ra
80000a28:	00821021 	addu	v0,a0,v0
80000a2c:	00000000 	nop

80000a30 <btbl_bitcnt>:
80000a30:	3c058000 	lui	a1,0x8000
80000a34:	27bdffd8 	addiu	sp,sp,-40
80000a38:	308200ff 	andi	v0,a0,0xff
80000a3c:	24a61738 	addiu	a2,a1,5944
80000a40:	00041a03 	sra	v1,a0,0x8
80000a44:	afb00018 	sw	s0,24(sp)
80000a48:	00468021 	addu	s0,v0,a2
80000a4c:	afbf0024 	sw	ra,36(sp)
80000a50:	afb20020 	sw	s2,32(sp)
80000a54:	afb1001c 	sw	s1,28(sp)
80000a58:	92100000 	lbu	s0,0(s0)
80000a5c:	14600008 	bnez	v1,80000a80 <btbl_bitcnt+0x50>
80000a60:	afa30028 	sw	v1,40(sp)
80000a64:	8fbf0024 	lw	ra,36(sp)
80000a68:	02001025 	move	v0,s0
80000a6c:	8fb20020 	lw	s2,32(sp)
80000a70:	8fb1001c 	lw	s1,28(sp)
80000a74:	8fb00018 	lw	s0,24(sp)
80000a78:	03e00008 	jr	ra
80000a7c:	27bd0028 	addiu	sp,sp,40
80000a80:	306700ff 	andi	a3,v1,0xff
80000a84:	00e68821 	addu	s1,a3,a2
80000a88:	00044403 	sra	t0,a0,0x10
80000a8c:	92310000 	lbu	s1,0(s1)
80000a90:	1500000b 	bnez	t0,80000ac0 <btbl_bitcnt+0x90>
80000a94:	afa80014 	sw	t0,20(sp)
80000a98:	02118021 	addu	s0,s0,s1
80000a9c:	8fbf0024 	lw	ra,36(sp)
80000aa0:	02001025 	move	v0,s0
80000aa4:	8fb20020 	lw	s2,32(sp)
80000aa8:	8fb1001c 	lw	s1,28(sp)
80000aac:	8fb00018 	lw	s0,24(sp)
80000ab0:	03e00008 	jr	ra
80000ab4:	27bd0028 	addiu	sp,sp,40
	...
80000ac0:	310500ff 	andi	a1,t0,0xff
80000ac4:	00a69021 	addu	s2,a1,a2
80000ac8:	00042603 	sra	a0,a0,0x18
80000acc:	92520000 	lbu	s2,0(s2)
80000ad0:	14800007 	bnez	a0,80000af0 <btbl_bitcnt+0xc0>
80000ad4:	afa80010 	sw	t0,16(sp)
80000ad8:	02328821 	addu	s1,s1,s2
80000adc:	1000ffef 	b	80000a9c <btbl_bitcnt+0x6c>
80000ae0:	02118021 	addu	s0,s0,s1
	...
80000af0:	0c00028c 	jal	80000a30 <btbl_bitcnt>
80000af4:	00000000 	nop
80000af8:	02429021 	addu	s2,s2,v0
80000afc:	1000fff7 	b	80000adc <btbl_bitcnt+0xac>
80000b00:	02328821 	addu	s1,s1,s2
	...

80000b10 <bit_count>:
80000b10:	10800022 	beqz	a0,80000b9c <bit_count+0x8c>
80000b14:	00001025 	move	v0,zero
80000b18:	2483ffff 	addiu	v1,a0,-1
80000b1c:	00836024 	and	t4,a0,v1
80000b20:	2585ffff 	addiu	a1,t4,-1
80000b24:	01856824 	and	t5,t4,a1
80000b28:	25a6ffff 	addiu	a2,t5,-1
80000b2c:	01a67024 	and	t6,t5,a2
80000b30:	25c7ffff 	addiu	a3,t6,-1
80000b34:	01c77824 	and	t7,t6,a3
80000b38:	25e8ffff 	addiu	t0,t7,-1
80000b3c:	01e8c024 	and	t8,t7,t0
80000b40:	2709ffff 	addiu	t1,t8,-1
80000b44:	0309c824 	and	t9,t8,t1
80000b48:	272affff 	addiu	t2,t9,-1
80000b4c:	032a1824 	and	v1,t9,t2
80000b50:	24420001 	addiu	v0,v0,1
80000b54:	2464ffff 	addiu	a0,v1,-1
80000b58:	00642024 	and	a0,v1,a0
80000b5c:	1180000f 	beqz	t4,80000b9c <bit_count+0x8c>
80000b60:	00405825 	move	t3,v0
80000b64:	11a0000d 	beqz	t5,80000b9c <bit_count+0x8c>
80000b68:	24420001 	addiu	v0,v0,1
80000b6c:	11c0000b 	beqz	t6,80000b9c <bit_count+0x8c>
80000b70:	25620002 	addiu	v0,t3,2
80000b74:	11e00009 	beqz	t7,80000b9c <bit_count+0x8c>
80000b78:	25620003 	addiu	v0,t3,3
80000b7c:	13000007 	beqz	t8,80000b9c <bit_count+0x8c>
80000b80:	25620004 	addiu	v0,t3,4
80000b84:	13200005 	beqz	t9,80000b9c <bit_count+0x8c>
80000b88:	25620005 	addiu	v0,t3,5
80000b8c:	10600003 	beqz	v1,80000b9c <bit_count+0x8c>
80000b90:	25620006 	addiu	v0,t3,6
80000b94:	1480ffe0 	bnez	a0,80000b18 <bit_count+0x8>
80000b98:	25620007 	addiu	v0,t3,7
80000b9c:	03e00008 	jr	ra
80000ba0:	00000000 	nop
	...

80000bb0 <printf>:
80000bb0:	27bdffc8 	addiu	sp,sp,-56
80000bb4:	afb4002c 	sw	s4,44(sp)
80000bb8:	afb0001c 	sw	s0,28(sp)
80000bbc:	afbf0034 	sw	ra,52(sp)
80000bc0:	afb50030 	sw	s5,48(sp)
80000bc4:	afb30028 	sw	s3,40(sp)
80000bc8:	afb20024 	sw	s2,36(sp)
80000bcc:	afb10020 	sw	s1,32(sp)
80000bd0:	90910000 	lbu	s1,0(a0)
80000bd4:	27b4003c 	addiu	s4,sp,60
80000bd8:	afa5003c 	sw	a1,60(sp)
80000bdc:	afa60040 	sw	a2,64(sp)
80000be0:	afa70044 	sw	a3,68(sp)
80000be4:	afb40010 	sw	s4,16(sp)
80000be8:	12200042 	beqz	s1,80000cf4 <printf+0x144>
80000bec:	00008025 	move	s0,zero
80000bf0:	3c158000 	lui	s5,0x8000
80000bf4:	00809025 	move	s2,a0
80000bf8:	24130025 	li	s3,37
80000bfc:	1000000b 	b	80000c2c <printf+0x7c>
80000c00:	26b51838 	addiu	s5,s5,6200
80000c04:	12220045 	beq	s1,v0,80000d1c <printf+0x16c>
80000c08:	00000000 	nop
80000c0c:	0c00055f 	jal	8000157c <putchar>
80000c10:	02202025 	move	a0,s1
80000c14:	26100001 	addiu	s0,s0,1
80000c18:	02501021 	addu	v0,s2,s0
80000c1c:	90510000 	lbu	s1,0(v0)
80000c20:	00000000 	nop
80000c24:	12200033 	beqz	s1,80000cf4 <printf+0x144>
80000c28:	00000000 	nop
80000c2c:	1633fff5 	bne	s1,s3,80000c04 <printf+0x54>
80000c30:	2402000a 	li	v0,10
80000c34:	02501021 	addu	v0,s2,s0
80000c38:	90430001 	lbu	v1,1(v0)
80000c3c:	24050001 	li	a1,1
80000c40:	2462ffdb 	addiu	v0,v1,-37
80000c44:	304200ff 	andi	v0,v0,0xff
80000c48:	2c440054 	sltiu	a0,v0,84
80000c4c:	10800022 	beqz	a0,80000cd8 <printf+0x128>
80000c50:	24040025 	li	a0,37
80000c54:	00021080 	sll	v0,v0,0x2
80000c58:	02a21021 	addu	v0,s5,v0
80000c5c:	8c420000 	lw	v0,0(v0)
80000c60:	00000000 	nop
80000c64:	00400008 	jr	v0
80000c68:	00000000 	nop
80000c6c:	26100001 	addiu	s0,s0,1
80000c70:	02501021 	addu	v0,s2,s0
80000c74:	90430001 	lbu	v1,1(v0)
80000c78:	00000000 	nop
80000c7c:	2462ffcf 	addiu	v0,v1,-49
80000c80:	2c420009 	sltiu	v0,v0,9
80000c84:	10400061 	beqz	v0,80000e0c <printf+0x25c>
80000c88:	00601025 	move	v0,v1
80000c8c:	00002825 	move	a1,zero
80000c90:	26100001 	addiu	s0,s0,1
80000c94:	02501821 	addu	v1,s2,s0
80000c98:	2446ffd0 	addiu	a2,v0,-48
80000c9c:	90620001 	lbu	v0,1(v1)
80000ca0:	00052040 	sll	a0,a1,0x1
80000ca4:	2443ffcf 	addiu	v1,v0,-49
80000ca8:	000528c0 	sll	a1,a1,0x3
80000cac:	00852821 	addu	a1,a0,a1
80000cb0:	2c630009 	sltiu	v1,v1,9
80000cb4:	1460fff6 	bnez	v1,80000c90 <printf+0xe0>
80000cb8:	00a62821 	addu	a1,a1,a2
80000cbc:	00401825 	move	v1,v0
80000cc0:	2462ffdb 	addiu	v0,v1,-37
80000cc4:	304200ff 	andi	v0,v0,0xff
80000cc8:	2c440054 	sltiu	a0,v0,84
80000ccc:	1480ffe2 	bnez	a0,80000c58 <printf+0xa8>
80000cd0:	00021080 	sll	v0,v0,0x2
80000cd4:	24040025 	li	a0,37
80000cd8:	0c00055f 	jal	8000157c <putchar>
80000cdc:	26100001 	addiu	s0,s0,1
80000ce0:	02501021 	addu	v0,s2,s0
80000ce4:	90510000 	lbu	s1,0(v0)
80000ce8:	00000000 	nop
80000cec:	1620ffcf 	bnez	s1,80000c2c <printf+0x7c>
80000cf0:	00000000 	nop
80000cf4:	8fbf0034 	lw	ra,52(sp)
80000cf8:	8fb50030 	lw	s5,48(sp)
80000cfc:	8fb4002c 	lw	s4,44(sp)
80000d00:	8fb30028 	lw	s3,40(sp)
80000d04:	8fb20024 	lw	s2,36(sp)
80000d08:	8fb10020 	lw	s1,32(sp)
80000d0c:	8fb0001c 	lw	s0,28(sp)
80000d10:	00001025 	move	v0,zero
80000d14:	03e00008 	jr	ra
80000d18:	27bd0038 	addiu	sp,sp,56
80000d1c:	0c00055f 	jal	8000157c <putchar>
80000d20:	2404000d 	li	a0,13
80000d24:	1000ffb9 	b	80000c0c <printf+0x5c>
80000d28:	00000000 	nop
80000d2c:	8e840000 	lw	a0,0(s4)
80000d30:	2406000a 	li	a2,10
80000d34:	0c000385 	jal	80000e14 <printbase>
80000d38:	00003825 	move	a3,zero
80000d3c:	26940004 	addiu	s4,s4,4
80000d40:	1000ffb4 	b	80000c14 <printf+0x64>
80000d44:	26100001 	addiu	s0,s0,1
80000d48:	8e840000 	lw	a0,0(s4)
80000d4c:	0c000531 	jal	800014c4 <putstring>
80000d50:	26100001 	addiu	s0,s0,1
80000d54:	1000ffaf 	b	80000c14 <printf+0x64>
80000d58:	26940004 	addiu	s4,s4,4
80000d5c:	8e840000 	lw	a0,0(s4)
80000d60:	24060010 	li	a2,16
80000d64:	0c000385 	jal	80000e14 <printbase>
80000d68:	00003825 	move	a3,zero
80000d6c:	26940004 	addiu	s4,s4,4
80000d70:	1000ffa8 	b	80000c14 <printf+0x64>
80000d74:	26100001 	addiu	s0,s0,1
80000d78:	8e840000 	lw	a0,0(s4)
80000d7c:	24060008 	li	a2,8
80000d80:	0c000385 	jal	80000e14 <printbase>
80000d84:	00003825 	move	a3,zero
80000d88:	26940004 	addiu	s4,s4,4
80000d8c:	1000ffa1 	b	80000c14 <printf+0x64>
80000d90:	26100001 	addiu	s0,s0,1
80000d94:	8e840000 	lw	a0,0(s4)
80000d98:	2406000a 	li	a2,10
80000d9c:	0c000385 	jal	80000e14 <printbase>
80000da0:	00003825 	move	a3,zero
80000da4:	26940004 	addiu	s4,s4,4
80000da8:	1000ff9a 	b	80000c14 <printf+0x64>
80000dac:	26100002 	addiu	s0,s0,2
80000db0:	8e840000 	lw	a0,0(s4)
80000db4:	2406000a 	li	a2,10
80000db8:	0c000385 	jal	80000e14 <printbase>
80000dbc:	24070001 	li	a3,1
80000dc0:	26940004 	addiu	s4,s4,4
80000dc4:	1000ff93 	b	80000c14 <printf+0x64>
80000dc8:	26100001 	addiu	s0,s0,1
80000dcc:	8e840000 	lw	a0,0(s4)
80000dd0:	0c00055f 	jal	8000157c <putchar>
80000dd4:	26100001 	addiu	s0,s0,1
80000dd8:	1000ff8e 	b	80000c14 <printf+0x64>
80000ddc:	26940004 	addiu	s4,s4,4
80000de0:	8e840000 	lw	a0,0(s4)
80000de4:	24060002 	li	a2,2
80000de8:	0c000385 	jal	80000e14 <printbase>
80000dec:	00003825 	move	a3,zero
80000df0:	26940004 	addiu	s4,s4,4
80000df4:	1000ff87 	b	80000c14 <printf+0x64>
80000df8:	26100001 	addiu	s0,s0,1
80000dfc:	0c00055f 	jal	8000157c <putchar>
80000e00:	24040025 	li	a0,37
80000e04:	1000ff83 	b	80000c14 <printf+0x64>
80000e08:	26100001 	addiu	s0,s0,1
80000e0c:	1000ff8c 	b	80000c40 <printf+0x90>
80000e10:	00002825 	move	a1,zero

80000e14 <printbase>:
80000e14:	27bdff98 	addiu	sp,sp,-104
80000e18:	afb30060 	sw	s3,96(sp)
80000e1c:	afb2005c 	sw	s2,92(sp)
80000e20:	afb00054 	sw	s0,84(sp)
80000e24:	afbf0064 	sw	ra,100(sp)
80000e28:	afb10058 	sw	s1,88(sp)
80000e2c:	00808025 	move	s0,a0
80000e30:	00a09825 	move	s3,a1
80000e34:	10e00003 	beqz	a3,80000e44 <printbase+0x30>
80000e38:	00c09025 	move	s2,a2
80000e3c:	04800031 	bltz	a0,80000f04 <printbase+0xf0>
80000e40:	2404002d 	li	a0,45
80000e44:	1200000d 	beqz	s0,80000e7c <printbase+0x68>
80000e48:	00008825 	move	s1,zero
80000e4c:	02002025 	move	a0,s0
80000e50:	0c0003c5 	jal	80000f14 <modm>
80000e54:	02402825 	move	a1,s2
80000e58:	27a30010 	addiu	v1,sp,16
80000e5c:	00711821 	addu	v1,v1,s1
80000e60:	02002025 	move	a0,s0
80000e64:	02402825 	move	a1,s2
80000e68:	0c0003d9 	jal	80000f64 <divm>
80000e6c:	a0620000 	sb	v0,0(v1)
80000e70:	00408025 	move	s0,v0
80000e74:	1440fff5 	bnez	v0,80000e4c <printbase+0x38>
80000e78:	26310001 	addiu	s1,s1,1
80000e7c:	0233182a 	slt	v1,s1,s3
80000e80:	10600002 	beqz	v1,80000e8c <printbase+0x78>
80000e84:	02201025 	move	v0,s1
80000e88:	02601025 	move	v0,s3
80000e8c:	14400008 	bnez	v0,80000eb0 <printbase+0x9c>
80000e90:	2450ffff 	addiu	s0,v0,-1
80000e94:	10000013 	b	80000ee4 <printbase+0xd0>
80000e98:	00000000 	nop
80000e9c:	24040030 	li	a0,48
80000ea0:	0c00055f 	jal	8000157c <putchar>
80000ea4:	2610ffff 	addiu	s0,s0,-1
80000ea8:	1240000e 	beqz	s2,80000ee4 <printbase+0xd0>
80000eac:	00000000 	nop
80000eb0:	27a20010 	addiu	v0,sp,16
80000eb4:	00501821 	addu	v1,v0,s0
80000eb8:	26020001 	addiu	v0,s0,1
80000ebc:	0222102a 	slt	v0,s1,v0
80000ec0:	1440fff6 	bnez	v0,80000e9c <printbase+0x88>
80000ec4:	02009025 	move	s2,s0
80000ec8:	90620000 	lbu	v0,0(v1)
80000ecc:	00000000 	nop
80000ed0:	2843000a 	slti	v1,v0,10
80000ed4:	1060fff2 	beqz	v1,80000ea0 <printbase+0x8c>
80000ed8:	24440057 	addiu	a0,v0,87
80000edc:	1000fff0 	b	80000ea0 <printbase+0x8c>
80000ee0:	24440030 	addiu	a0,v0,48
80000ee4:	8fbf0064 	lw	ra,100(sp)
80000ee8:	8fb30060 	lw	s3,96(sp)
80000eec:	8fb2005c 	lw	s2,92(sp)
80000ef0:	8fb10058 	lw	s1,88(sp)
80000ef4:	8fb00054 	lw	s0,84(sp)
80000ef8:	00001025 	move	v0,zero
80000efc:	03e00008 	jr	ra
80000f00:	27bd0068 	addiu	sp,sp,104
80000f04:	0c00055f 	jal	8000157c <putchar>
80000f08:	00108023 	negu	s0,s0
80000f0c:	1000ffcd 	b	80000e44 <printbase+0x30>
80000f10:	00000000 	nop

80000f14 <modm>:
80000f14:	00801025 	move	v0,a0
80000f18:	10000002 	b	80000f24 <modm+0x10>
80000f1c:	00a01825 	move	v1,a1
80000f20:	00801825 	move	v1,a0
80000f24:	00032040 	sll	a0,v1,0x1
80000f28:	0044302b 	sltu	a2,v0,a0
80000f2c:	10c0fffc 	beqz	a2,80000f20 <modm+0xc>
80000f30:	00000000 	nop
80000f34:	0065202b 	sltu	a0,v1,a1
80000f38:	14800008 	bnez	a0,80000f5c <modm+0x48>
80000f3c:	0043202b 	sltu	a0,v0,v1
80000f40:	14800002 	bnez	a0,80000f4c <modm+0x38>
80000f44:	00000000 	nop
80000f48:	00431023 	subu	v0,v0,v1
80000f4c:	00031842 	srl	v1,v1,0x1
80000f50:	0065202b 	sltu	a0,v1,a1
80000f54:	1080fffa 	beqz	a0,80000f40 <modm+0x2c>
80000f58:	0043202b 	sltu	a0,v0,v1
80000f5c:	03e00008 	jr	ra
80000f60:	00000000 	nop

80000f64 <divm>:
80000f64:	00051840 	sll	v1,a1,0x1
80000f68:	0083102b 	sltu	v0,a0,v1
80000f6c:	14400019 	bnez	v0,80000fd4 <divm+0x70>
80000f70:	00000000 	nop
80000f74:	10000002 	b	80000f80 <divm+0x1c>
80000f78:	24060001 	li	a2,1
80000f7c:	00401825 	move	v1,v0
80000f80:	00031040 	sll	v0,v1,0x1
80000f84:	0082382b 	sltu	a3,a0,v0
80000f88:	10e0fffc 	beqz	a3,80000f7c <divm+0x18>
80000f8c:	00063040 	sll	a2,a2,0x1
80000f90:	0065102b 	sltu	v0,v1,a1
80000f94:	1440000d 	bnez	v0,80000fcc <divm+0x68>
80000f98:	00000000 	nop
80000f9c:	00001025 	move	v0,zero
80000fa0:	0083382b 	sltu	a3,a0,v1
80000fa4:	14e00003 	bnez	a3,80000fb4 <divm+0x50>
80000fa8:	00000000 	nop
80000fac:	00832023 	subu	a0,a0,v1
80000fb0:	00461021 	addu	v0,v0,a2
80000fb4:	00031842 	srl	v1,v1,0x1
80000fb8:	0065382b 	sltu	a3,v1,a1
80000fbc:	10e0fff8 	beqz	a3,80000fa0 <divm+0x3c>
80000fc0:	00063042 	srl	a2,a2,0x1
80000fc4:	03e00008 	jr	ra
80000fc8:	00000000 	nop
80000fcc:	03e00008 	jr	ra
80000fd0:	00001025 	move	v0,zero
80000fd4:	00a01825 	move	v1,a1
80000fd8:	1000fff0 	b	80000f9c <divm+0x38>
80000fdc:	24060001 	li	a2,1

80000fe0 <_get_count>:
80000fe0:	40024800 	mfc0	v0,$9
80000fe4:	03e00008 	jr	ra
80000fe8:	00000000 	nop

80000fec <get_count>:
80000fec:	40024800 	mfc0	v0,$9
80000ff0:	03e00008 	jr	ra
80000ff4:	00000000 	nop

80000ff8 <clock_gettime>:
80000ff8:	27bdffe8 	addiu	sp,sp,-24
80000ffc:	40034800 	mfc0	v1,$9
80001000:	00a03825 	move	a3,a1
80001004:	afbf0014 	sw	ra,20(sp)
80001008:	00032840 	sll	a1,v1,0x1
8000100c:	10000002 	b	80001018 <clock_gettime+0x20>
80001010:	240203e8 	li	v0,1000
80001014:	00801025 	move	v0,a0
80001018:	00022040 	sll	a0,v0,0x1
8000101c:	00a4302b 	sltu	a2,a1,a0
80001020:	10c0fffc 	beqz	a2,80001014 <clock_gettime+0x1c>
80001024:	00000000 	nop
80001028:	2c4403e8 	sltiu	a0,v0,1000
8000102c:	1480000a 	bnez	a0,80001058 <clock_gettime+0x60>
80001030:	2c6907d0 	sltiu	t1,v1,2000
80001034:	00a2202b 	sltu	a0,a1,v0
80001038:	14800002 	bnez	a0,80001044 <clock_gettime+0x4c>
8000103c:	00000000 	nop
80001040:	00a22823 	subu	a1,a1,v0
80001044:	00021042 	srl	v0,v0,0x1
80001048:	2c4403e8 	sltiu	a0,v0,1000
8000104c:	1080fffa 	beqz	a0,80001038 <clock_gettime+0x40>
80001050:	00a2202b 	sltu	a0,a1,v0
80001054:	2c6907d0 	sltiu	t1,v1,2000
80001058:	152000b6 	bnez	t1,80001334 <clock_gettime+0x33c>
8000105c:	ace50004 	sw	a1,4(a3)
80001060:	240207d0 	li	v0,2000
80001064:	10000002 	b	80001070 <clock_gettime+0x78>
80001068:	24040001 	li	a0,1
8000106c:	00c01025 	move	v0,a2
80001070:	00023040 	sll	a2,v0,0x1
80001074:	0066402b 	sltu	t0,v1,a2
80001078:	1100fffc 	beqz	t0,8000106c <clock_gettime+0x74>
8000107c:	00042040 	sll	a0,a0,0x1
80001080:	2c4603e8 	sltiu	a2,v0,1000
80001084:	14c000a2 	bnez	a2,80001310 <clock_gettime+0x318>
80001088:	00000000 	nop
8000108c:	00604025 	move	t0,v1
80001090:	00003025 	move	a2,zero
80001094:	0102502b 	sltu	t2,t0,v0
80001098:	15400003 	bnez	t2,800010a8 <clock_gettime+0xb0>
8000109c:	00000000 	nop
800010a0:	01024023 	subu	t0,t0,v0
800010a4:	00c43021 	addu	a2,a2,a0
800010a8:	00021042 	srl	v0,v0,0x1
800010ac:	2c4a03e8 	sltiu	t2,v0,1000
800010b0:	1140fff8 	beqz	t2,80001094 <clock_gettime+0x9c>
800010b4:	00042042 	srl	a0,a0,0x1
800010b8:	00062040 	sll	a0,a2,0x1
800010bc:	10000002 	b	800010c8 <clock_gettime+0xd0>
800010c0:	240203e8 	li	v0,1000
800010c4:	00c01025 	move	v0,a2
800010c8:	00023040 	sll	a2,v0,0x1
800010cc:	0086402b 	sltu	t0,a0,a2
800010d0:	1100fffc 	beqz	t0,800010c4 <clock_gettime+0xcc>
800010d4:	00000000 	nop
800010d8:	2c4603e8 	sltiu	a2,v0,1000
800010dc:	14c00008 	bnez	a2,80001100 <clock_gettime+0x108>
800010e0:	0082302b 	sltu	a2,a0,v0
800010e4:	14c00002 	bnez	a2,800010f0 <clock_gettime+0xf8>
800010e8:	00000000 	nop
800010ec:	00822023 	subu	a0,a0,v0
800010f0:	00021042 	srl	v0,v0,0x1
800010f4:	2c4603e8 	sltiu	a2,v0,1000
800010f8:	10c0fffa 	beqz	a2,800010e4 <clock_gettime+0xec>
800010fc:	0082302b 	sltu	a2,a0,v0
80001100:	1520008f 	bnez	t1,80001340 <clock_gettime+0x348>
80001104:	ace40008 	sw	a0,8(a3)
80001108:	240207d0 	li	v0,2000
8000110c:	10000002 	b	80001118 <clock_gettime+0x120>
80001110:	24040001 	li	a0,1
80001114:	00c01025 	move	v0,a2
80001118:	00023040 	sll	a2,v0,0x1
8000111c:	0066402b 	sltu	t0,v1,a2
80001120:	1100fffc 	beqz	t0,80001114 <clock_gettime+0x11c>
80001124:	00042040 	sll	a0,a0,0x1
80001128:	2c4603e8 	sltiu	a2,v0,1000
8000112c:	14c0007a 	bnez	a2,80001318 <clock_gettime+0x320>
80001130:	00000000 	nop
80001134:	00604025 	move	t0,v1
80001138:	00003025 	move	a2,zero
8000113c:	0102502b 	sltu	t2,t0,v0
80001140:	15400003 	bnez	t2,80001150 <clock_gettime+0x158>
80001144:	00000000 	nop
80001148:	01024023 	subu	t0,t0,v0
8000114c:	00c43021 	addu	a2,a2,a0
80001150:	00021042 	srl	v0,v0,0x1
80001154:	2c4a03e8 	sltiu	t2,v0,1000
80001158:	1140fff8 	beqz	t2,8000113c <clock_gettime+0x144>
8000115c:	00042042 	srl	a0,a0,0x1
80001160:	00063040 	sll	a2,a2,0x1
80001164:	2cc207d0 	sltiu	v0,a2,2000
80001168:	1440007c 	bnez	v0,8000135c <clock_gettime+0x364>
8000116c:	00000000 	nop
80001170:	240207d0 	li	v0,2000
80001174:	10000002 	b	80001180 <clock_gettime+0x188>
80001178:	24040001 	li	a0,1
8000117c:	01001025 	move	v0,t0
80001180:	00024040 	sll	t0,v0,0x1
80001184:	00c8502b 	sltu	t2,a2,t0
80001188:	1140fffc 	beqz	t2,8000117c <clock_gettime+0x184>
8000118c:	00042040 	sll	a0,a0,0x1
80001190:	2c4803e8 	sltiu	t0,v0,1000
80001194:	1500000b 	bnez	t0,800011c4 <clock_gettime+0x1cc>
80001198:	00004025 	move	t0,zero
8000119c:	00004025 	move	t0,zero
800011a0:	00c2502b 	sltu	t2,a2,v0
800011a4:	15400003 	bnez	t2,800011b4 <clock_gettime+0x1bc>
800011a8:	00000000 	nop
800011ac:	00c23023 	subu	a2,a2,v0
800011b0:	01044021 	addu	t0,t0,a0
800011b4:	00021042 	srl	v0,v0,0x1
800011b8:	2c4a03e8 	sltiu	t2,v0,1000
800011bc:	1140fff8 	beqz	t2,800011a0 <clock_gettime+0x1a8>
800011c0:	00042042 	srl	a0,a0,0x1
800011c4:	10000002 	b	800011d0 <clock_gettime+0x1d8>
800011c8:	240203e8 	li	v0,1000
800011cc:	00801025 	move	v0,a0
800011d0:	00022040 	sll	a0,v0,0x1
800011d4:	0104302b 	sltu	a2,t0,a0
800011d8:	10c0fffc 	beqz	a2,800011cc <clock_gettime+0x1d4>
800011dc:	00000000 	nop
800011e0:	2c4403e8 	sltiu	a0,v0,1000
800011e4:	14800008 	bnez	a0,80001208 <clock_gettime+0x210>
800011e8:	0102202b 	sltu	a0,t0,v0
800011ec:	14800002 	bnez	a0,800011f8 <clock_gettime+0x200>
800011f0:	00000000 	nop
800011f4:	01024023 	subu	t0,t0,v0
800011f8:	00021042 	srl	v0,v0,0x1
800011fc:	2c4403e8 	sltiu	a0,v0,1000
80001200:	1080fffa 	beqz	a0,800011ec <clock_gettime+0x1f4>
80001204:	0102202b 	sltu	a0,t0,v0
80001208:	15200047 	bnez	t1,80001328 <clock_gettime+0x330>
8000120c:	ace8000c 	sw	t0,12(a3)
80001210:	240207d0 	li	v0,2000
80001214:	10000002 	b	80001220 <clock_gettime+0x228>
80001218:	24040001 	li	a0,1
8000121c:	00c01025 	move	v0,a2
80001220:	00023040 	sll	a2,v0,0x1
80001224:	0066402b 	sltu	t0,v1,a2
80001228:	1100fffc 	beqz	t0,8000121c <clock_gettime+0x224>
8000122c:	00042040 	sll	a0,a0,0x1
80001230:	2c4603e8 	sltiu	a2,v0,1000
80001234:	14c00031 	bnez	a2,800012fc <clock_gettime+0x304>
80001238:	00000000 	nop
8000123c:	00003025 	move	a2,zero
80001240:	0062402b 	sltu	t0,v1,v0
80001244:	15000003 	bnez	t0,80001254 <clock_gettime+0x25c>
80001248:	00000000 	nop
8000124c:	00621823 	subu	v1,v1,v0
80001250:	00c43021 	addu	a2,a2,a0
80001254:	00021042 	srl	v0,v0,0x1
80001258:	2c4803e8 	sltiu	t0,v0,1000
8000125c:	1100fff8 	beqz	t0,80001240 <clock_gettime+0x248>
80001260:	00042042 	srl	a0,a0,0x1
80001264:	3c027735 	lui	v0,0x7735
80001268:	00062040 	sll	a0,a2,0x1
8000126c:	34429400 	ori	v0,v0,0x9400
80001270:	0082182b 	sltu	v1,a0,v0
80001274:	14600035 	bnez	v1,8000134c <clock_gettime+0x354>
80001278:	00000000 	nop
8000127c:	10000002 	b	80001288 <clock_gettime+0x290>
80001280:	24030001 	li	v1,1
80001284:	00c01025 	move	v0,a2
80001288:	00023040 	sll	a2,v0,0x1
8000128c:	0086402b 	sltu	t0,a0,a2
80001290:	1100fffc 	beqz	t0,80001284 <clock_gettime+0x28c>
80001294:	00031840 	sll	v1,v1,0x1
80001298:	3c063b9a 	lui	a2,0x3b9a
8000129c:	34c6ca00 	ori	a2,a2,0xca00
800012a0:	0046302b 	sltu	a2,v0,a2
800012a4:	14c0000d 	bnez	a2,800012dc <clock_gettime+0x2e4>
800012a8:	00003025 	move	a2,zero
800012ac:	3c093b9a 	lui	t1,0x3b9a
800012b0:	00003025 	move	a2,zero
800012b4:	3529ca00 	ori	t1,t1,0xca00
800012b8:	0082402b 	sltu	t0,a0,v0
800012bc:	15000003 	bnez	t0,800012cc <clock_gettime+0x2d4>
800012c0:	00000000 	nop
800012c4:	00822023 	subu	a0,a0,v0
800012c8:	00c33021 	addu	a2,a2,v1
800012cc:	00021042 	srl	v0,v0,0x1
800012d0:	0049402b 	sltu	t0,v0,t1
800012d4:	1100fff8 	beqz	t0,800012b8 <clock_gettime+0x2c0>
800012d8:	00031842 	srl	v1,v1,0x1
800012dc:	3c048000 	lui	a0,0x8000
800012e0:	ace60000 	sw	a2,0(a3)
800012e4:	0c0002ec 	jal	80000bb0 <printf>
800012e8:	24841988 	addiu	a0,a0,6536
800012ec:	8fbf0014 	lw	ra,20(sp)
800012f0:	00001025 	move	v0,zero
800012f4:	03e00008 	jr	ra
800012f8:	27bd0018 	addiu	sp,sp,24
800012fc:	3c023b9a 	lui	v0,0x3b9a
80001300:	24030001 	li	v1,1
80001304:	3442ca00 	ori	v0,v0,0xca00
80001308:	1000ffe8 	b	800012ac <clock_gettime+0x2b4>
8000130c:	00002025 	move	a0,zero
80001310:	1000ff6a 	b	800010bc <clock_gettime+0xc4>
80001314:	00002025 	move	a0,zero
80001318:	24040001 	li	a0,1
8000131c:	240203e8 	li	v0,1000
80001320:	1000ff9e 	b	8000119c <clock_gettime+0x1a4>
80001324:	00003025 	move	a2,zero
80001328:	240203e8 	li	v0,1000
8000132c:	1000ffc3 	b	8000123c <clock_gettime+0x244>
80001330:	24040001 	li	a0,1
80001334:	240203e8 	li	v0,1000
80001338:	1000ff54 	b	8000108c <clock_gettime+0x94>
8000133c:	24040001 	li	a0,1
80001340:	240203e8 	li	v0,1000
80001344:	1000ff7b 	b	80001134 <clock_gettime+0x13c>
80001348:	24040001 	li	a0,1
8000134c:	3c023b9a 	lui	v0,0x3b9a
80001350:	24030001 	li	v1,1
80001354:	1000ffd5 	b	800012ac <clock_gettime+0x2b4>
80001358:	3442ca00 	ori	v0,v0,0xca00
8000135c:	24040001 	li	a0,1
80001360:	1000ff8e 	b	8000119c <clock_gettime+0x1a4>
80001364:	240203e8 	li	v0,1000

80001368 <get_clock>:
80001368:	40024800 	mfc0	v0,$9
8000136c:	03e00008 	jr	ra
80001370:	00021040 	sll	v0,v0,0x1

80001374 <get_us>:
80001374:	40054800 	mfc0	a1,$9
80001378:	00000000 	nop
8000137c:	2ca207d0 	sltiu	v0,a1,2000
80001380:	1440002a 	bnez	v0,8000142c <get_us+0xb8>
80001384:	00000000 	nop
80001388:	240307d0 	li	v1,2000
8000138c:	10000002 	b	80001398 <get_us+0x24>
80001390:	24040001 	li	a0,1
80001394:	00401825 	move	v1,v0
80001398:	00031040 	sll	v0,v1,0x1
8000139c:	00a2302b 	sltu	a2,a1,v0
800013a0:	10c0fffc 	beqz	a2,80001394 <get_us+0x20>
800013a4:	00042040 	sll	a0,a0,0x1
800013a8:	2c6203e8 	sltiu	v0,v1,1000
800013ac:	1440000c 	bnez	v0,800013e0 <get_us+0x6c>
800013b0:	00001025 	move	v0,zero
800013b4:	00001025 	move	v0,zero
800013b8:	00a3302b 	sltu	a2,a1,v1
800013bc:	14c00003 	bnez	a2,800013cc <get_us+0x58>
800013c0:	00000000 	nop
800013c4:	00a32823 	subu	a1,a1,v1
800013c8:	00441021 	addu	v0,v0,a0
800013cc:	00031842 	srl	v1,v1,0x1
800013d0:	2c6603e8 	sltiu	a2,v1,1000
800013d4:	10c0fff8 	beqz	a2,800013b8 <get_us+0x44>
800013d8:	00042042 	srl	a0,a0,0x1
800013dc:	00021040 	sll	v0,v0,0x1
800013e0:	10000002 	b	800013ec <get_us+0x78>
800013e4:	240303e8 	li	v1,1000
800013e8:	00801825 	move	v1,a0
800013ec:	00032040 	sll	a0,v1,0x1
800013f0:	0044282b 	sltu	a1,v0,a0
800013f4:	10a0fffc 	beqz	a1,800013e8 <get_us+0x74>
800013f8:	00000000 	nop
800013fc:	2c6403e8 	sltiu	a0,v1,1000
80001400:	14800008 	bnez	a0,80001424 <get_us+0xb0>
80001404:	0043202b 	sltu	a0,v0,v1
80001408:	14800002 	bnez	a0,80001414 <get_us+0xa0>
8000140c:	00000000 	nop
80001410:	00431023 	subu	v0,v0,v1
80001414:	00031842 	srl	v1,v1,0x1
80001418:	2c6403e8 	sltiu	a0,v1,1000
8000141c:	1080fffa 	beqz	a0,80001408 <get_us+0x94>
80001420:	0043202b 	sltu	a0,v0,v1
80001424:	03e00008 	jr	ra
80001428:	00000000 	nop
8000142c:	240303e8 	li	v1,1000
80001430:	1000ffe0 	b	800013b4 <get_us+0x40>
80001434:	24040001 	li	a0,1

80001438 <get_ns>:
80001438:	27bdffe8 	addiu	sp,sp,-24
8000143c:	afbf0014 	sw	ra,20(sp)
80001440:	0c0004dd 	jal	80001374 <get_us>
80001444:	00000000 	nop
80001448:	00022080 	sll	a0,v0,0x2
8000144c:	000219c0 	sll	v1,v0,0x7
80001450:	8fbf0014 	lw	ra,20(sp)
80001454:	00641823 	subu	v1,v1,a0
80001458:	00621021 	addu	v0,v1,v0
8000145c:	000210c0 	sll	v0,v0,0x3
80001460:	03e00008 	jr	ra
80001464:	27bd0018 	addiu	sp,sp,24

80001468 <get_epc>:
80001468:	40027000 	mfc0	v0,c0_epc
8000146c:	03e00008 	jr	ra
80001470:	00000000 	nop

80001474 <get_cause>:
80001474:	40026800 	mfc0	v0,c0_cause
80001478:	03e00008 	jr	ra
8000147c:	00000000 	nop

80001480 <exception>:
80001480:	3c048000 	lui	a0,0x8000
80001484:	27bdffe8 	addiu	sp,sp,-24
80001488:	afbf0014 	sw	ra,20(sp)
8000148c:	0c0002ec 	jal	80000bb0 <printf>
80001490:	2484199c 	addiu	a0,a0,6556
80001494:	3c048000 	lui	a0,0x8000
80001498:	248419b8 	addiu	a0,a0,6584
8000149c:	40057000 	mfc0	a1,c0_epc
800014a0:	0c0002ec 	jal	80000bb0 <printf>
800014a4:	00000000 	nop
800014a8:	8fbf0014 	lw	ra,20(sp)
800014ac:	3c048000 	lui	a0,0x8000
800014b0:	248419c8 	addiu	a0,a0,6600
800014b4:	27bd0018 	addiu	sp,sp,24
800014b8:	40056800 	mfc0	a1,c0_cause
800014bc:	080002ec 	j	80000bb0 <printf>
800014c0:	00000000 	nop

800014c4 <putstring>:
800014c4:	27bdffe0 	addiu	sp,sp,-32
800014c8:	afb20018 	sw	s2,24(sp)
800014cc:	afb10014 	sw	s1,20(sp)
800014d0:	afbf001c 	sw	ra,28(sp)
800014d4:	afb00010 	sw	s0,16(sp)
800014d8:	90900000 	lbu	s0,0(a0)
800014dc:	00808825 	move	s1,a0
800014e0:	16000009 	bnez	s0,80001508 <putstring+0x44>
800014e4:	2412000a 	li	s2,10
800014e8:	10000011 	b	80001530 <putstring+0x6c>
800014ec:	00000000 	nop
800014f0:	0c00055f 	jal	8000157c <putchar>
800014f4:	02002025 	move	a0,s0
800014f8:	92300000 	lbu	s0,0(s1)
800014fc:	00000000 	nop
80001500:	1200000b 	beqz	s0,80001530 <putstring+0x6c>
80001504:	00000000 	nop
80001508:	1612fff9 	bne	s0,s2,800014f0 <putstring+0x2c>
8000150c:	26310001 	addiu	s1,s1,1
80001510:	0c00055f 	jal	8000157c <putchar>
80001514:	2404000d 	li	a0,13
80001518:	0c00055f 	jal	8000157c <putchar>
8000151c:	02002025 	move	a0,s0
80001520:	92300000 	lbu	s0,0(s1)
80001524:	00000000 	nop
80001528:	1600fff7 	bnez	s0,80001508 <putstring+0x44>
8000152c:	00000000 	nop
80001530:	8fbf001c 	lw	ra,28(sp)
80001534:	8fb20018 	lw	s2,24(sp)
80001538:	8fb10014 	lw	s1,20(sp)
8000153c:	8fb00010 	lw	s0,16(sp)
80001540:	00001025 	move	v0,zero
80001544:	03e00008 	jr	ra
80001548:	27bd0020 	addiu	sp,sp,32

8000154c <puts>:
8000154c:	27bdffe8 	addiu	sp,sp,-24
80001550:	afbf0014 	sw	ra,20(sp)
80001554:	0c000531 	jal	800014c4 <putstring>
80001558:	00000000 	nop
8000155c:	0c00055f 	jal	8000157c <putchar>
80001560:	2404000d 	li	a0,13
80001564:	0c00055f 	jal	8000157c <putchar>
80001568:	2404000a 	li	a0,10
8000156c:	8fbf0014 	lw	ra,20(sp)
80001570:	00001025 	move	v0,zero
80001574:	03e00008 	jr	ra
80001578:	27bd0018 	addiu	sp,sp,24

8000157c <putchar>:
8000157c:	3c03bfd0 	lui	v1,0xbfd0
80001580:	8c6203fc 	lw	v0,1020(v1)
80001584:	00000000 	nop
80001588:	30420001 	andi	v0,v0,0x1
8000158c:	1040fffb 	beqz	v0,8000157c <putchar>
80001590:	00000000 	nop
80001594:	10800002 	beqz	a0,800015a0 <putchar+0x24>
80001598:	00000000 	nop
8000159c:	ac6403f8 	sw	a0,1016(v1)
800015a0:	03e00008 	jr	ra
800015a4:	00001025 	move	v0,zero

800015a8 <tgt_putchar>:
800015a8:	3c03bfd0 	lui	v1,0xbfd0
800015ac:	8c6203fc 	lw	v0,1020(v1)
800015b0:	00000000 	nop
800015b4:	30420001 	andi	v0,v0,0x1
800015b8:	1040fffb 	beqz	v0,800015a8 <tgt_putchar>
800015bc:	00000000 	nop
800015c0:	10800002 	beqz	a0,800015cc <tgt_putchar+0x24>
800015c4:	00000000 	nop
800015c8:	ac6403f8 	sw	a0,1016(v1)
800015cc:	03e00008 	jr	ra
800015d0:	00000000 	nop
800015d4:	73746942 	0x73746942
800015d8:	6c25203a 	0x6c25203a
800015dc:	00000a64 	0xa64
800015e0:	656d6954 	0x656d6954
800015e4:	7525203a 	jalx	849480e8 <_stack+0x4846108>
800015e8:	63796320 	0x63796320
800015ec:	2c73656c 	sltiu	s3,v1,25964
800015f0:	20752520 	addi	s5,v1,9504
800015f4:	00007375 	0x7375
800015f8:	20746942 	addi	s4,v1,26946
800015fc:	6e756f63 	0x6e756f63
80001600:	20726574 	addi	s2,v1,25972
80001604:	6f676c61 	0x6f676c61
80001608:	68746972 	0x68746972
8000160c:	6562206d 	0x6562206d
80001610:	6d68636e 	0x6d68636e
80001614:	0a6b7261 	j	89adc984 <_stack+0x99da9a4>
80001618:	00000000 	nop

8000161c <pBitCntFunc.1517>:
8000161c:	80000b10 	lb	zero,2832(zero)
80001620:	80000710 	lb	zero,1808(zero)
80001624:	800008f0 	lb	zero,2288(zero)
80001628:	800007a0 	lb	zero,1952(zero)
8000162c:	80000840 	lb	zero,2112(zero)
80001630:	80000890 	lb	zero,2192(zero)
80001634:	80000420 	lb	zero,1056(zero)

80001638 <bits>:
80001638:	02010100 	0x2010100
8000163c:	03020201 	0x3020201
80001640:	03020201 	0x3020201
80001644:	04030302 	0x4030302
80001648:	03020201 	0x3020201
8000164c:	04030302 	0x4030302
80001650:	04030302 	0x4030302
80001654:	05040403 	0x5040403
80001658:	03020201 	0x3020201
8000165c:	04030302 	0x4030302
80001660:	04030302 	0x4030302
80001664:	05040403 	0x5040403
80001668:	04030302 	0x4030302
8000166c:	05040403 	0x5040403
80001670:	05040403 	0x5040403
80001674:	06050504 	0x6050504
80001678:	03020201 	0x3020201
8000167c:	04030302 	0x4030302
80001680:	04030302 	0x4030302
80001684:	05040403 	0x5040403
80001688:	04030302 	0x4030302
8000168c:	05040403 	0x5040403
80001690:	05040403 	0x5040403
80001694:	06050504 	0x6050504
80001698:	04030302 	0x4030302
8000169c:	05040403 	0x5040403
800016a0:	05040403 	0x5040403
800016a4:	06050504 	0x6050504
800016a8:	05040403 	0x5040403
800016ac:	06050504 	0x6050504
800016b0:	06050504 	0x6050504
800016b4:	07060605 	0x7060605
800016b8:	03020201 	0x3020201
800016bc:	04030302 	0x4030302
800016c0:	04030302 	0x4030302
800016c4:	05040403 	0x5040403
800016c8:	04030302 	0x4030302
800016cc:	05040403 	0x5040403
800016d0:	05040403 	0x5040403
800016d4:	06050504 	0x6050504
800016d8:	04030302 	0x4030302
800016dc:	05040403 	0x5040403
800016e0:	05040403 	0x5040403
800016e4:	06050504 	0x6050504
800016e8:	05040403 	0x5040403
800016ec:	06050504 	0x6050504
800016f0:	06050504 	0x6050504
800016f4:	07060605 	0x7060605
800016f8:	04030302 	0x4030302
800016fc:	05040403 	0x5040403
80001700:	05040403 	0x5040403
80001704:	06050504 	0x6050504
80001708:	05040403 	0x5040403
8000170c:	06050504 	0x6050504
80001710:	06050504 	0x6050504
80001714:	07060605 	0x7060605
80001718:	05040403 	0x5040403
8000171c:	06050504 	0x6050504
80001720:	06050504 	0x6050504
80001724:	07060605 	0x7060605
80001728:	06050504 	0x6050504
8000172c:	07060605 	0x7060605
80001730:	07060605 	0x7060605
80001734:	08070706 	j	801c1c18 <_stack+0xbfc38>

80001738 <bits>:
80001738:	02010100 	0x2010100
8000173c:	03020201 	0x3020201
80001740:	03020201 	0x3020201
80001744:	04030302 	0x4030302
80001748:	03020201 	0x3020201
8000174c:	04030302 	0x4030302
80001750:	04030302 	0x4030302
80001754:	05040403 	0x5040403
80001758:	03020201 	0x3020201
8000175c:	04030302 	0x4030302
80001760:	04030302 	0x4030302
80001764:	05040403 	0x5040403
80001768:	04030302 	0x4030302
8000176c:	05040403 	0x5040403
80001770:	05040403 	0x5040403
80001774:	06050504 	0x6050504
80001778:	03020201 	0x3020201
8000177c:	04030302 	0x4030302
80001780:	04030302 	0x4030302
80001784:	05040403 	0x5040403
80001788:	04030302 	0x4030302
8000178c:	05040403 	0x5040403
80001790:	05040403 	0x5040403
80001794:	06050504 	0x6050504
80001798:	04030302 	0x4030302
8000179c:	05040403 	0x5040403
800017a0:	05040403 	0x5040403
800017a4:	06050504 	0x6050504
800017a8:	05040403 	0x5040403
800017ac:	06050504 	0x6050504
800017b0:	06050504 	0x6050504
800017b4:	07060605 	0x7060605
800017b8:	03020201 	0x3020201
800017bc:	04030302 	0x4030302
800017c0:	04030302 	0x4030302
800017c4:	05040403 	0x5040403
800017c8:	04030302 	0x4030302
800017cc:	05040403 	0x5040403
800017d0:	05040403 	0x5040403
800017d4:	06050504 	0x6050504
800017d8:	04030302 	0x4030302
800017dc:	05040403 	0x5040403
800017e0:	05040403 	0x5040403
800017e4:	06050504 	0x6050504
800017e8:	05040403 	0x5040403
800017ec:	06050504 	0x6050504
800017f0:	06050504 	0x6050504
800017f4:	07060605 	0x7060605
800017f8:	04030302 	0x4030302
800017fc:	05040403 	0x5040403
80001800:	05040403 	0x5040403
80001804:	06050504 	0x6050504
80001808:	05040403 	0x5040403
8000180c:	06050504 	0x6050504
80001810:	06050504 	0x6050504
80001814:	07060605 	0x7060605
80001818:	05040403 	0x5040403
8000181c:	06050504 	0x6050504
80001820:	06050504 	0x6050504
80001824:	07060605 	0x7060605
80001828:	06050504 	0x6050504
8000182c:	07060605 	0x7060605
80001830:	07060605 	0x7060605
80001834:	08070706 	j	801c1c18 <_stack+0xbfc38>
80001838:	80000dfc 	lb	zero,3580(zero)
8000183c:	80000cd4 	lb	zero,3284(zero)
80001840:	80000cd4 	lb	zero,3284(zero)
80001844:	80000cd4 	lb	zero,3284(zero)
80001848:	80000cd4 	lb	zero,3284(zero)
8000184c:	80000cd4 	lb	zero,3284(zero)
80001850:	80000cd4 	lb	zero,3284(zero)
80001854:	80000cd4 	lb	zero,3284(zero)
80001858:	80000cd4 	lb	zero,3284(zero)
8000185c:	80000cd4 	lb	zero,3284(zero)
80001860:	80000cd4 	lb	zero,3284(zero)
80001864:	80000c6c 	lb	zero,3180(zero)
80001868:	80000c7c 	lb	zero,3196(zero)
8000186c:	80000c7c 	lb	zero,3196(zero)
80001870:	80000c7c 	lb	zero,3196(zero)
80001874:	80000c7c 	lb	zero,3196(zero)
80001878:	80000c7c 	lb	zero,3196(zero)
8000187c:	80000c7c 	lb	zero,3196(zero)
80001880:	80000c7c 	lb	zero,3196(zero)
80001884:	80000c7c 	lb	zero,3196(zero)
80001888:	80000c7c 	lb	zero,3196(zero)
8000188c:	80000cd4 	lb	zero,3284(zero)
80001890:	80000cd4 	lb	zero,3284(zero)
80001894:	80000cd4 	lb	zero,3284(zero)
80001898:	80000cd4 	lb	zero,3284(zero)
8000189c:	80000cd4 	lb	zero,3284(zero)
800018a0:	80000cd4 	lb	zero,3284(zero)
800018a4:	80000cd4 	lb	zero,3284(zero)
800018a8:	80000cd4 	lb	zero,3284(zero)
800018ac:	80000cd4 	lb	zero,3284(zero)
800018b0:	80000cd4 	lb	zero,3284(zero)
800018b4:	80000cd4 	lb	zero,3284(zero)
800018b8:	80000cd4 	lb	zero,3284(zero)
800018bc:	80000cd4 	lb	zero,3284(zero)
800018c0:	80000cd4 	lb	zero,3284(zero)
800018c4:	80000cd4 	lb	zero,3284(zero)
800018c8:	80000cd4 	lb	zero,3284(zero)
800018cc:	80000cd4 	lb	zero,3284(zero)
800018d0:	80000cd4 	lb	zero,3284(zero)
800018d4:	80000cd4 	lb	zero,3284(zero)
800018d8:	80000cd4 	lb	zero,3284(zero)
800018dc:	80000cd4 	lb	zero,3284(zero)
800018e0:	80000cd4 	lb	zero,3284(zero)
800018e4:	80000cd4 	lb	zero,3284(zero)
800018e8:	80000cd4 	lb	zero,3284(zero)
800018ec:	80000cd4 	lb	zero,3284(zero)
800018f0:	80000cd4 	lb	zero,3284(zero)
800018f4:	80000cd4 	lb	zero,3284(zero)
800018f8:	80000cd4 	lb	zero,3284(zero)
800018fc:	80000cd4 	lb	zero,3284(zero)
80001900:	80000cd4 	lb	zero,3284(zero)
80001904:	80000cd4 	lb	zero,3284(zero)
80001908:	80000cd4 	lb	zero,3284(zero)
8000190c:	80000cd4 	lb	zero,3284(zero)
80001910:	80000cd4 	lb	zero,3284(zero)
80001914:	80000cd4 	lb	zero,3284(zero)
80001918:	80000cd4 	lb	zero,3284(zero)
8000191c:	80000cd4 	lb	zero,3284(zero)
80001920:	80000cd4 	lb	zero,3284(zero)
80001924:	80000cd4 	lb	zero,3284(zero)
80001928:	80000cd4 	lb	zero,3284(zero)
8000192c:	80000de0 	lb	zero,3552(zero)
80001930:	80000dcc 	lb	zero,3532(zero)
80001934:	80000db0 	lb	zero,3504(zero)
80001938:	80000cd4 	lb	zero,3284(zero)
8000193c:	80000cd4 	lb	zero,3284(zero)
80001940:	80000cd4 	lb	zero,3284(zero)
80001944:	80000cd4 	lb	zero,3284(zero)
80001948:	80000cd4 	lb	zero,3284(zero)
8000194c:	80000cd4 	lb	zero,3284(zero)
80001950:	80000cd4 	lb	zero,3284(zero)
80001954:	80000d94 	lb	zero,3476(zero)
80001958:	80000cd4 	lb	zero,3284(zero)
8000195c:	80000cd4 	lb	zero,3284(zero)
80001960:	80000d78 	lb	zero,3448(zero)
80001964:	80000d5c 	lb	zero,3420(zero)
80001968:	80000cd4 	lb	zero,3284(zero)
8000196c:	80000cd4 	lb	zero,3284(zero)
80001970:	80000d48 	lb	zero,3400(zero)
80001974:	80000cd4 	lb	zero,3284(zero)
80001978:	80000d2c 	lb	zero,3372(zero)
8000197c:	80000cd4 	lb	zero,3284(zero)
80001980:	80000cd4 	lb	zero,3284(zero)
80001984:	80000d5c 	lb	zero,3420(zero)
80001988:	636f6c63 	0x636f6c63
8000198c:	736e206b 	0x736e206b
80001990:	2c64253d 	sltiu	a0,v1,9533
80001994:	3d636573 	0x3d636573
80001998:	000a6425 	0xa6425
8000199c:	72656854 	0x72656854
800019a0:	73692065 	0x73692065
800019a4:	206e6120 	addi	t6,v1,24864
800019a8:	65637865 	0x65637865
800019ac:	6f697470 	0x6f697470
800019b0:	0a21216e 	j	888485b8 <_stack+0x87465d8>
800019b4:	00000000 	nop
800019b8:	20656854 	addi	a1,v1,26708
800019bc:	20637065 	addi	v1,v1,28773
800019c0:	25207369 	addiu	zero,t1,29545
800019c4:	00000a78 	0xa78
800019c8:	20656854 	addi	a1,v1,26708
800019cc:	73756163 	0x73756163
800019d0:	73692065 	0x73692065
800019d4:	0a782520 	j	89e09480 <_stack+0x9d074a0>
800019d8:	00000000 	nop
800019dc:	b0000602 	0xb0000602
	...
800019f8:	00010000 	sll	zero,at,0x0
800019fc:	03000001 	0x3000001
	...

Disassembly of section .pdr:

00000000 <.pdr>:
   0:	80000390 	lb	zero,912(zero)
   4:	801f0000 	lb	ra,0(zero)
   8:	fffffffc 	0xfffffffc
	...
  14:	00000028 	0x28
  18:	0000001d 	0x1d
  1c:	0000001f 	0x1f
  20:	80000420 	lb	zero,1056(zero)
  24:	00030000 	sll	zero,v1,0x0
  28:	fffffffc 	0xfffffffc
	...
  34:	00000008 	jr	zero
  38:	0000001d 	0x1d
  3c:	0000001f 	0x1f
  40:	800004f0 	lb	zero,1264(zero)
	...
  58:	0000001d 	0x1d
  5c:	0000001f 	0x1f
  60:	80000500 	lb	zero,1280(zero)
  64:	80ff0000 	lb	ra,0(a3)
  68:	fffffffc 	0xfffffffc
	...
  74:	00000038 	0x38
  78:	0000001d 	0x1d
  7c:	0000001f 	0x1f
  80:	80000710 	lb	zero,1808(zero)
	...
  98:	0000001d 	0x1d
  9c:	0000001f 	0x1f
  a0:	800007a0 	lb	zero,1952(zero)
	...
  b8:	0000001d 	0x1d
  bc:	0000001f 	0x1f
  c0:	80000840 	lb	zero,2112(zero)
	...
  d8:	0000001d 	0x1d
  dc:	0000001f 	0x1f
  e0:	80000890 	lb	zero,2192(zero)
	...
  f8:	0000001d 	0x1d
  fc:	0000001f 	0x1f
 100:	800008f0 	lb	zero,2288(zero)
 104:	00070000 	sll	zero,a3,0x0
 108:	fffffffc 	0xfffffffc
	...
 114:	00000010 	mfhi	zero
 118:	0000001d 	0x1d
 11c:	0000001f 	0x1f
 120:	80000a30 	lb	zero,2608(zero)
 124:	80070000 	lb	a3,0(zero)
 128:	fffffffc 	0xfffffffc
	...
 134:	00000028 	0x28
 138:	0000001d 	0x1d
 13c:	0000001f 	0x1f
 140:	80000b10 	lb	zero,2832(zero)
	...
 158:	0000001d 	0x1d
 15c:	0000001f 	0x1f
 160:	80000bb0 	lb	zero,2992(zero)
 164:	803f0000 	lb	ra,0(at)
 168:	fffffffc 	0xfffffffc
	...
 174:	00000038 	0x38
 178:	0000001d 	0x1d
 17c:	0000001f 	0x1f
 180:	80000e14 	lb	zero,3604(zero)
 184:	800f0000 	lb	t7,0(zero)
 188:	fffffffc 	0xfffffffc
	...
 194:	00000068 	0x68
 198:	0000001d 	0x1d
 19c:	0000001f 	0x1f
 1a0:	80000f14 	lb	zero,3860(zero)
	...
 1b8:	0000001d 	0x1d
 1bc:	0000001f 	0x1f
 1c0:	80000f64 	lb	zero,3940(zero)
	...
 1d8:	0000001d 	0x1d
 1dc:	0000001f 	0x1f
 1e0:	80000fe0 	lb	zero,4064(zero)
	...
 1f8:	0000001d 	0x1d
 1fc:	0000001f 	0x1f
 200:	80000fec 	lb	zero,4076(zero)
	...
 218:	0000001d 	0x1d
 21c:	0000001f 	0x1f
 220:	80000ff8 	lb	zero,4088(zero)
 224:	80000000 	lb	zero,0(zero)
 228:	fffffffc 	0xfffffffc
	...
 234:	00000018 	mult	zero,zero
 238:	0000001d 	0x1d
 23c:	0000001f 	0x1f
 240:	80001368 	lb	zero,4968(zero)
	...
 258:	0000001d 	0x1d
 25c:	0000001f 	0x1f
 260:	80001374 	lb	zero,4980(zero)
	...
 278:	0000001d 	0x1d
 27c:	0000001f 	0x1f
 280:	80001438 	lb	zero,5176(zero)
 284:	80000000 	lb	zero,0(zero)
 288:	fffffffc 	0xfffffffc
	...
 294:	00000018 	mult	zero,zero
 298:	0000001d 	0x1d
 29c:	0000001f 	0x1f
 2a0:	80001468 	lb	zero,5224(zero)
	...
 2b8:	0000001d 	0x1d
 2bc:	0000001f 	0x1f
 2c0:	80001474 	lb	zero,5236(zero)
	...
 2d8:	0000001d 	0x1d
 2dc:	0000001f 	0x1f
 2e0:	80001480 	lb	zero,5248(zero)
 2e4:	80000000 	lb	zero,0(zero)
 2e8:	fffffffc 	0xfffffffc
	...
 2f4:	00000018 	mult	zero,zero
 2f8:	0000001d 	0x1d
 2fc:	0000001f 	0x1f
 300:	800014c4 	lb	zero,5316(zero)
 304:	80070000 	lb	a3,0(zero)
 308:	fffffffc 	0xfffffffc
	...
 314:	00000020 	add	zero,zero,zero
 318:	0000001d 	0x1d
 31c:	0000001f 	0x1f
 320:	8000154c 	lb	zero,5452(zero)
 324:	80000000 	lb	zero,0(zero)
 328:	fffffffc 	0xfffffffc
	...
 334:	00000018 	mult	zero,zero
 338:	0000001d 	0x1d
 33c:	0000001f 	0x1f
 340:	8000157c 	lb	zero,5500(zero)
	...
 358:	0000001d 	0x1d
 35c:	0000001f 	0x1f
 360:	800015a8 	lb	zero,5544(zero)
	...
 378:	0000001d 	0x1d
 37c:	0000001f 	0x1f

Disassembly of section .gnu.attributes:

00000000 <.gnu.attributes>:
   0:	00000f41 	0xf41
   4:	756e6700 	jalx	5b99c00 <_ftext-0x7a466400>
   8:	00070100 	sll	zero,a3,0x4
   c:	03040000 	0x3040000
